
AVRASM ver. 1.52  ww.asm Thu Aug 15 11:04:09 2002


         ;CodeVisionAVR C Compiler V1.23.6a Evaluation
         ;(C) Copyright 1998-2002 HP InfoTech s.r.l.
         ;http://www.hpinfotech.ro
         ;e-mail:office@hpinfotech.ro , hpinfotech@xnet.ro
         
         ;Chip type           : AT90S8535
         ;Clock frequency     : 3.696000 MHz
         ;Memory model        : Small
         ;Optimize for        : Size
         ;(s)printf features  : int, width
         ;Internal SRAM size  : 512
         ;External SRAM size  : 0
         ;Data Stack size     : 128
         ;Promote char to int : No
         ;char is unsigned    : Yes
         ;8 bit enums         : Yes
         ;Automatic register allocation : On
         ;Use AVR Studio Terminal I/O   : No
         
          	.DEVICE AT90S8535
          	.LISTMAC
          	.EQU UDRE=0x5
          	.EQU RXC=0x7
          	.EQU USR=0xB
          	.EQU UDR=0xC
          	.EQU EERE=0x0
          	.EQU EEWE=0x1
          	.EQU EEMWE=0x2
          	.EQU SPSR=0xE
          	.EQU SPDR=0xF
          	.EQU EECR=0x1C
          	.EQU EEDR=0x1D
          	.EQU EEARL=0x1E
          	.EQU EEARH=0x1F
          	.EQU WDTCR=0x21
          	.EQU MCUCR=0x35
          	.EQU RAMPZ=0x3B
          	.EQU SPL=0x3D
          	.EQU SPH=0x3E
          	.EQU SREG=0x3F
          	.DEF R0X0=R0
          	.DEF R0X1=R1
          	.DEF R0X2=R2
          	.DEF R0X3=R3
          	.DEF R0X4=R4
          	.DEF R0X5=R5
          	.DEF R0X6=R6
          	.DEF R0X7=R7
          	.DEF R0X8=R8
          	.DEF R0X9=R9
          	.DEF R0XA=R10
          	.DEF R0XB=R11
          	.DEF R0XC=R12
          	.DEF R0XD=R13
          	.DEF R0XE=R14
          	.DEF R0XF=R15
          	.DEF R0X10=R16
          	.DEF R0X11=R17
          	.DEF R0X12=R18
          	.DEF R0X13=R19
          	.DEF R0X14=R20
          	.DEF R0X15=R21
          	.DEF R0X16=R22
          	.DEF R0X17=R23
          	.DEF R0X18=R24
          	.DEF R0X19=R25
          	.DEF R0X1A=R26
          	.DEF R0X1B=R27
          	.DEF R0X1C=R28
          	.DEF R0X1D=R29
          	.DEF R0X1E=R30
          	.DEF R0X1F=R31
          	.EQU __se_bit=0x40
          	.EQU __sm_mask=0x30
          	.EQU __sm_powerdown=0x20
         
          	.MACRO __CPD1N
          	CPI  R30,LOW(@0)
          	LDI  R26,HIGH(@0)
          	CPC  R31,R26
          	LDI  R26,BYTE3(@0)
          	CPC  R22,R26
          	LDI  R26,BYTE4(@0)
          	CPC  R23,R26
          	.ENDM
         
          	.MACRO __CPD2N
          	CPI  R26,LOW(@0)
          	LDI  R30,HIGH(@0)
          	CPC  R27,R30
          	LDI  R30,BYTE3(@0)
          	CPC  R24,R30
          	LDI  R30,BYTE4(@0)
          	CPC  R25,R30
          	.ENDM
         
          	.MACRO __CPWRR
          	CP   R@0,R@2
          	CPC  R@1,R@3
          	.ENDM
         
          	.MACRO __CPWRN
          	CPI  R@0,LOW(@2)
          	LDI  R30,HIGH(@2)
          	CPC  R@1,R30
          	.ENDM
         
          	.MACRO __ADDD1N
          	SUBI R30,LOW(-@0)
          	SBCI R31,HIGH(-@0)
          	SBCI R22,BYTE3(-@0)
          	SBCI R23,BYTE4(-@0)
          	.ENDM
         
          	.MACRO __ADDD2N
          	SUBI R26,LOW(-@0)
          	SBCI R27,HIGH(-@0)
          	SBCI R24,BYTE3(-@0)
          	SBCI R25,BYTE4(-@0)
          	.ENDM
         
          	.MACRO __SUBD1N
          	SUBI R30,LOW(@0)
          	SBCI R31,HIGH(@0)
          	SBCI R22,BYTE3(@0)
          	SBCI R23,BYTE4(@0)
          	.ENDM
         
          	.MACRO __SUBD2N
          	SUBI R26,LOW(@0)
          	SBCI R27,HIGH(@0)
          	SBCI R24,BYTE3(@0)
          	SBCI R25,BYTE4(@0)
          	.ENDM
         
          	.MACRO __ANDD1N
          	ANDI R30,LOW(@0)
          	ANDI R31,HIGH(@0)
          	ANDI R22,BYTE3(@0)
          	ANDI R23,BYTE4(@0)
          	.ENDM
         
          	.MACRO __ORD1N
          	ORI  R30,LOW(@0)
          	ORI  R31,HIGH(@0)
          	ORI  R22,BYTE3(@0)
          	ORI  R23,BYTE4(@0)
          	.ENDM
         
          	.MACRO __DELAY_USB
          	LDI  R24,LOW(@0)
          __DELAY_USB_LOOP:
          	DEC  R24
          	BRNE __DELAY_USB_LOOP
          	.ENDM
         
          	.MACRO __DELAY_USW
          	LDI  R24,LOW(@0)
          	LDI  R25,HIGH(@0)
          __DELAY_USW_LOOP:
          	SBIW R24,1
          	BRNE __DELAY_USW_LOOP
          	.ENDM
         
          	.MACRO __CLRD1S
          	CLR  R30
          	STD  Y+@0,R30
          	STD  Y+@0+1,R30
          	STD  Y+@0+2,R30
          	STD  Y+@0+3,R30
          	.ENDM
         
          	.MACRO __GETD1S
          	LDD  R30,Y+@0
          	LDD  R31,Y+@0+1
          	LDD  R22,Y+@0+2
          	LDD  R23,Y+@0+3
          	.ENDM
         
          	.MACRO __PUTD1S
          	STD  Y+@0,R30
          	STD  Y+@0+1,R31
          	STD  Y+@0+2,R22
          	STD  Y+@0+3,R23
          	.ENDM
         
          	.MACRO __POINTB1MN
          	LDI  R30,LOW(@0+@1)
          	.ENDM
         
          	.MACRO __POINTW1MN
          	LDI  R30,LOW(@0+@1)
          	LDI  R31,HIGH(@0+@1)
          	.ENDM
         
          	.MACRO __POINTW1FN
          	LDI  R30,LOW(2*@0+@1)
          	LDI  R31,HIGH(2*@0+@1)
          	.ENDM
         
          	.MACRO __POINTB2MN
          	LDI  R26,LOW(@0+@1)
          	.ENDM
         
          	.MACRO __POINTW2MN
          	LDI  R26,LOW(@0+@1)
          	LDI  R27,HIGH(@0+@1)
          	.ENDM
         
          	.MACRO __GETD1N
          	LDI  R30,LOW(@0)
          	LDI  R31,HIGH(@0)
          	LDI  R22,BYTE3(@0)
          	LDI  R23,BYTE4(@0)
          	.ENDM
         
          	.MACRO __GETD2N
          	LDI  R26,LOW(@0)
          	LDI  R27,HIGH(@0)
          	LDI  R24,BYTE3(@0)
          	LDI  R25,BYTE4(@0)
          	.ENDM
         
          	.MACRO __GETD2S
          	LDD  R26,Y+@0
          	LDD  R27,Y+@0+1
          	LDD  R24,Y+@0+2
          	LDD  R25,Y+@0+3
          	.ENDM
         
          	.MACRO __GETB1MN
          	LDS  R30,@0+@1
          	.ENDM
         
          	.MACRO __GETW1MN
          	LDS  R30,@0+@1
          	LDS  R31,@0+@1+1
          	.ENDM
         
          	.MACRO __GETD1MN
          	LDS  R30,@0+@1
          	LDS  R31,@0+@1+1
          	LDS  R22,@0+@1+2
          	LDS  R23,@0+@1+3
          	.ENDM
         
          	.MACRO __GETBRMN
          	LDS  R@2,@0+@1
          	.ENDM
         
          	.MACRO __GETWRMN
          	LDS  R@2,@0+@1
          	LDS  R@3,@0+@1+1
          	.ENDM
         
          	.MACRO __GETB2MN
          	LDS  R26,@0+@1
          	.ENDM
         
          	.MACRO __GETW2MN
          	LDS  R26,@0+@1
          	LDS  R27,@0+@1+1
          	.ENDM
         
          	.MACRO __GETD2MN
          	LDS  R26,@0+@1
          	LDS  R27,@0+@1+1
          	LDS  R24,@0+@1+2
          	LDS  R25,@0+@1+3
          	.ENDM
         
          	.MACRO __PUTB1MN
          	STS  @0+@1,R30
          	.ENDM
         
          	.MACRO __PUTW1MN
          	STS  @0+@1,R30
          	STS  @0+@1+1,R31
          	.ENDM
         
          	.MACRO __PUTD1MN
          	STS  @0+@1,R30
          	STS  @0+@1+1,R31
          	STS  @0+@1+2,R22
          	STS  @0+@1+3,R23
          	.ENDM
         
          	.MACRO __PUTBMRN
          	STS  @0+@1,R@2
          	.ENDM
         
          	.MACRO __PUTWMRN
          	STS  @0+@1,R@2
          	STS  @0+@1+1,R@3
          	.ENDM
         
          	.MACRO __GETW1R
          	MOV  R30,R@0
          	MOV  R31,R@1
          	.ENDM
         
          	.MACRO __GETW2R
          	MOV  R26,R@0
          	MOV  R27,R@1
          	.ENDM
         
          	.MACRO __GETWRN
          	LDI  R@0,LOW(@2)
          	LDI  R@1,HIGH(@2)
          	.ENDM
         
          	.MACRO __PUTW1R
          	MOV  R@0,R30
          	MOV  R@1,R31
          	.ENDM
         
          	.MACRO __PUTW2R
          	MOV  R@0,R26
          	MOV  R@1,R27
          	.ENDM
         
          	.MACRO __ADDWRN
          	SUBI R@0,LOW(-@2)
          	SBCI R@1,HIGH(-@2)
          	.ENDM
         
          	.MACRO __ADDWRR
          	ADD  R@0,R@2
          	ADC  R@1,R@3
          	.ENDM
         
          	.MACRO __SUBWRN
          	SUBI R@0,LOW(@2)
          	SBCI R@1,HIGH(@2)
          	.ENDM
         
          	.MACRO __SUBWRR
          	SUB  R@0,R@2
          	SBC  R@1,R@3
          	.ENDM
         
          	.MACRO __ANDWRN
          	ANDI R@0,LOW(@2)
          	ANDI R@1,HIGH(@2)
          	.ENDM
         
          	.MACRO __ANDWRR
          	AND  R@0,R@2
          	AND  R@1,R@3
          	.ENDM
         
          	.MACRO __ORWRN
          	ORI  R@0,LOW(@2)
          	ORI  R@1,HIGH(@2)
          	.ENDM
         
          	.MACRO __ORWRR
          	OR   R@0,R@2
          	OR   R@1,R@3
          	.ENDM
         
          	.MACRO __EORWRR
          	EOR  R@0,R@2
          	EOR  R@1,R@3
          	.ENDM
         
          	.MACRO __GETWRS
          	LDD  R@0,Y+@2
          	LDD  R@1,Y+@2+1
          	.ENDM
         
          	.MACRO __PUTWSR
          	STD  Y+@2,R@0
          	STD  Y+@2+1,R@1
          	.ENDM
         
          	.MACRO __MOVEWRR
          	MOV  R@0,R@2
          	MOV  R@1,R@3
          	.ENDM
         
          	.MACRO __INWR
          	IN   R@0,@2
          	IN   R@1,@2+1
          	.ENDM
         
          	.MACRO __OUTWR
          	OUT  @2+1,R@1
          	OUT  @2,R@0
          	.ENDM
         
          	.MACRO __CALL1MN
          	LDS  R30,@0+@1
          	LDS  R31,@0+@1+1
          	ICALL
          	.ENDM
         
          	.MACRO __NBST
          	BST  R@0,@1
          	IN   R30,SREG
          	LDI  R31,0x40
          	EOR  R30,R31
          	OUT  SREG,R30
          	.ENDM
         
         
          	.MACRO __PUTB1SN
          	LDD  R26,Y+@0
          	LDD  R27,Y+@0+1
          	SUBI R26,LOW(-@1)
          	SBCI R27,HIGH(-@1)
          	ST   X,R30
          	.ENDM
         
          	.MACRO __PUTW1SN
          	LDD  R26,Y+@0
          	LDD  R27,Y+@0+1
          	SUBI R26,LOW(-@1)
          	SBCI R27,HIGH(-@1)
          	ST   X+,R30
          	ST   X,R31
          	.ENDM
         
          	.MACRO __PUTD1SN
          	LDD  R26,Y+@0
          	LDD  R27,Y+@0+1
          	SUBI R26,LOW(-@1)
          	SBCI R27,HIGH(-@1)
          	RCALL __PUTDP1
          	.ENDM
         
          	.MACRO __PUTB1SNS
          	LDD  R26,Y+@0
          	LDD  R27,Y+@0+1
          	ADIW R26,@1
          	ST   X,R30
          	.ENDM
         
          	.MACRO __PUTW1SNS
          	LDD  R26,Y+@0
          	LDD  R27,Y+@0+1
          	ADIW R26,@1
          	ST   X+,R30
          	ST   X,R31
          	.ENDM
         
          	.MACRO __PUTD1SNS
          	LDD  R26,Y+@0
          	LDD  R27,Y+@0+1
          	ADIW R26,@1
          	RCALL __PUTDP1
          	.ENDM
         
          	.MACRO __PUTB1PMN
          	LDS  R26,@0
          	LDS  R27,@0+1
          	SUBI R26,LOW(-@1)
          	SBCI R27,HIGH(-@1)
          	ST   X,R30
          	.ENDM
         
          	.MACRO __PUTW1PMN
          	LDS  R26,@0
          	LDS  R27,@0+1
          	SUBI R26,LOW(-@1)
          	SBCI R27,HIGH(-@1)
          	ST   X+,R30
          	ST   X,R31
          	.ENDM
         
          	.MACRO __PUTD1PMN
          	LDS  R26,@0
          	LDS  R27,@0+1
          	SUBI R26,LOW(-@1)
          	SBCI R27,HIGH(-@1)
          	RCALL __PUTDP1
          	.ENDM
         
          	.MACRO __PUTB1PMNS
          	LDS  R26,@0
          	LDS  R27,@0+1
          	ADIW R26,@1
          	ST   X,R30
          	.ENDM
         
          	.MACRO __PUTW1PMNS
          	LDS  R26,@0
          	LDS  R27,@0+1
          	ADIW R26,@1
          	ST   X+,R30
          	ST   X,R31
          	.ENDM
         
          	.MACRO __PUTD1PMNS
          	LDS  R26,@0
          	LDS  R27,@0+1
          	ADIW R26,@1
          	RCALL __PUTDP1
          	.ENDM
         
          	.MACRO __GETB1SX
          	MOV  R30,R28
          	MOV  R31,R29
          	SUBI R30,LOW(-@0)
          	SBCI R31,HIGH(-@0)
          	LD   R30,Z
          	.ENDM
         
          	.MACRO __GETW1SX
          	MOV  R30,R28
          	MOV  R31,R29
          	SUBI R30,LOW(-@0)
          	SBCI R31,HIGH(-@0)
          	LD   R0,Z+
          	LD   R31,Z
          	MOV  R30,R0
          	.ENDM
         
          	.MACRO __GETD1SX
          	MOV  R30,R28
          	MOV  R31,R29
          	SUBI R30,LOW(-@0)
          	SBCI R31,HIGH(-@0)
          	LD   R0,Z+
          	LD   R1,Z+
          	LD   R22,Z+
          	LD   R23,Z
          	MOV  R30,R0
          	MOV  R31,R1
          	.ENDM
         
          	.MACRO __GETB2SX
          	MOV  R26,R28
          	MOV  R27,R29
          	SUBI R26,LOW(-@0)
          	SBCI R27,HIGH(-@0)
          	LD   R26,X
          	.ENDM
         
          	.MACRO __GETW2SX
          	MOV  R26,R28
          	MOV  R27,R29
          	SUBI R26,LOW(-@0)
          	SBCI R27,HIGH(-@0)
          	LD   R0,X+
          	LD   R27,X
          	MOV  R26,R0
          	.ENDM
         
          	.MACRO __GETD2SX
          	MOV  R26,R28
          	MOV  R27,R29
          	SUBI R26,LOW(-@0)
          	SBCI R27,HIGH(-@0)
          	LD   R0,X+
          	LD   R1,X+
          	LD   R24,X+
          	LD   R25,X
          	MOV  R26,R0
          	MOV  R27,R1
          	.ENDM
         
          	.MACRO __GETBRSX
          	MOV  R30,R28
          	MOV  R31,R29
          	SUBI R30,LOW(-@1)
          	SBCI R31,HIGH(-@1)
          	LD   R@0,Z
          	.ENDM
         
          	.MACRO __GETWRSX
          	MOV  R30,R28
          	MOV  R31,R29
          	SUBI R30,LOW(-@2)
          	SBCI R31,HIGH(-@2)
          	LD   R@0,Z+
          	LD   R@1,Z
          	.ENDM
         
          	.MACRO __LSLW8SX
          	MOV  R30,R28
          	MOV  R31,R29
          	SUBI R30,LOW(-@0)
          	SBCI R31,HIGH(-@0)
          	LD   R31,Z
          	CLR  R30
          	.ENDM
         
          	.MACRO __PUTB1SX
          	MOV  R26,R28
          	MOV  R27,R29
          	SUBI R26,LOW(-@0)
          	SBCI R27,HIGH(-@0)
          	ST   X,R30
          	.ENDM
         
          	.MACRO __PUTW1SX
          	MOV  R26,R28
          	MOV  R27,R29
          	SUBI R26,LOW(-@0)
          	SBCI R27,HIGH(-@0)
          	ST   X+,R30
          	ST   X,R31
          	.ENDM
         
          	.MACRO __PUTD1SX
          	MOV  R26,R28
          	MOV  R27,R29
          	SUBI R26,LOW(-@0)
          	SBCI R27,HIGH(-@0)
          	ST   X+,R30
          	ST   X+,R31
          	ST   X+,R22
          	ST   X,R23
          	.ENDM
         
          	.MACRO __CLRW1SX
          	MOV  R30,R28
          	MOV  R31,R29
          	SUBI R30,LOW(-@0)
          	SBCI R31,HIGH(-@0)
          	CLR  R0
          	ST   Z+,R0
          	ST   Z,R0
          	.ENDM
         
          	.MACRO __CLRD1SX
          	MOV  R30,R28
          	MOV  R31,R29
          	SUBI R30,LOW(-@0)
          	SBCI R31,HIGH(-@0)
          	CLR  R0
          	ST   Z+,R0
          	ST   Z+,R0
          	ST   Z+,R0
          	ST   Z,R0
          	.ENDM
         
          	.MACRO __PUTB2SX
          	MOV  R30,R28
          	MOV  R31,R29
          	SUBI R30,LOW(-@0)
          	SBCI R31,HIGH(-@0)
          	ST   Z,R26
          	.ENDM
         
          	.MACRO __PUTW2SX
          	MOV  R30,R28
          	MOV  R31,R29
          	SUBI R30,LOW(-@0)
          	SBCI R31,HIGH(-@0)
          	ST   Z+,R26
          	ST   Z,R27
          	.ENDM
         
          	.MACRO __PUTBSRX
          	MOV  R30,R28
          	MOV  R31,R29
          	SUBI R30,LOW(-@0)
          	SBCI R31,HIGH(-@0)
          	ST   Z,R@1
          	.ENDM
         
          	.MACRO __PUTWSRX
          	MOV  R30,R28
          	MOV  R31,R29
          	SUBI R30,LOW(-@2)
          	SBCI R31,HIGH(-@2)
          	ST   Z+,R@0
          	ST   Z,R@1
          	.ENDM
         
          	.MACRO __PUTB1SNX
          	MOV  R26,R28
          	MOV  R27,R29
          	SUBI R26,LOW(-@0)
          	SBCI R27,HIGH(-@0)
          	LD   R0,X+
          	LD   R27,X
          	MOV  R26,R0
          	SUBI R26,LOW(-@1)
          	SBCI R27,HIGH(-@1)
          	ST   X,R30
          	.ENDM
         
          	.MACRO __PUTW1SNX
          	MOV  R26,R28
          	MOV  R27,R29
          	SUBI R26,LOW(-@0)
          	SBCI R27,HIGH(-@0)
          	LD   R0,X+
          	LD   R27,X
          	MOV  R26,R0
          	SUBI R26,LOW(-@1)
          	SBCI R27,HIGH(-@1)
          	ST   X+,R30
          	ST   X,R31
          	.ENDM
         
          	.MACRO __PUTD1SNX
          	MOV  R26,R28
          	MOV  R27,R29
          	SUBI R26,LOW(-@0)
          	SBCI R27,HIGH(-@0)
          	LD   R0,X+
          	LD   R27,X
          	MOV  R26,R0
          	SUBI R26,LOW(-@1)
          	SBCI R27,HIGH(-@1)
          	ST   X+,R30
          	ST   X+,R31
          	ST   X+,R22
          	ST   X,R23
          	.ENDM
         
          	.CSEG
          	.ORG 0
         
          	.INCLUDE "ww.vec"
         
         ;INTERRUPT VECTORS
000000 c047      	RJMP __RESET
000001 cffe      	RJMP 0
000002 cffd      	RJMP 0
000003 cffc      	RJMP 0
000004 cffb      	RJMP 0
000005 cffa      	RJMP 0
000006 cff9      	RJMP 0
000007 cff8      	RJMP 0
000008 cff7      	RJMP 0
000009 cff6      	RJMP 0
00000a cff5      	RJMP 0
00000b cff4      	RJMP 0
00000c cff3      	RJMP 0
00000d cff2      	RJMP 0
00000e cff1      	RJMP 0
00000f cff0      	RJMP 0
000010 cfef      	RJMP 0
         
          	.INCLUDE "ww.inc"
          	.DEF _rep=R3
          _9:
          	.DB  0x50,0x6C,0x65,0x61,0x73,0x65,0x20,0x65
000011 6c50
000012 6165
000013 6573
000014 6520
          	.DB  0x6E,0x74,0x65,0x72,0x20,0x61,0x20,0x76
000015 746e
000016 7265
000017 6120
000018 7620
          	.DB  0x61,0x6C,0x75,0x65,0x20,0x62,0x65,0x74
000019 6c61
00001a 6575
00001b 6220
00001c 7465
          	.DB  0x77,0x65,0x65,0x6E,0x20,0x31,0x20,0x61
00001d 6577
00001e 6e65
00001f 3120
000020 6120
          	.DB  0x6E,0x64,0x20,0x34,0x30,0x39,0x36,0x0
000021 646e
000022 3420
000023 3930
000024 0036
          	.DB  0x74,0x68,0x65,0x20,0x76,0x61,0x6C,0x75
000025 6874
000026 2065
000027 6176
000028 756c
          	.DB  0x65,0x20,0x69,0x73,0x20,0x25,0x64,0x20
000029 2065
00002a 7369
00002b 2520
00002c 2064
          	.DB  0x25,0x64,0x20,0x25,0x64,0x20,0x25,0x64
00002d 6425
00002e 2520
00002f 2064
000030 6425
          	.DB  0x20,0x25,0x64,0x20,0x25,0x64,0x20,0x25
000031 2520
000032 2064
000033 6425
000034 2520
          	.DB  0x64,0x20,0x25,0x64,0x20,0x25,0x64,0x20
000035 2064
000036 6425
000037 2520
000038 2064
          	.DB  0x25,0x64,0x20,0x25,0x64,0x20,0x25,0x64
000039 6425
00003a 2520
00003b 2064
00003c 6425
          	.DB  0xA,0x0
00003d 000a
          _tbl10_G2:
          	.DW  0x2710,0x3E8,0x64,0xA,0x1
00003e 2710
00003f 03e8
000040 0064
000041 000a
000042 0001
          _tbl16_G2:
          	.DW  0x1000,0x100,0x10,0x1
000043 1000
000044 0100
000045 0010
000046 0001
         
          __GLOBAL_INI_TBL:
          	.DW  0
000047 0000
          __RESET:
000048 94f8      	CLI
000049 27ee      	CLR  R30
00004a bbec      	OUT  EECR,R30
00004b bfe5      	OUT  MCUCR,R30
         
         ;DISABLE WATCHDOG
00004c e1f8      	LDI  R31,0x18
00004d bdf1      	OUT  WDTCR,R31
00004e e1f0      	LDI  R31,0x10
00004f bdf1      	OUT  WDTCR,R31
         
         ;CLEAR R2-R14
000050 e08d      	LDI  R24,13
000051 e0a2      	LDI  R26,2
000052 27bb      	CLR  R27
          __CLEAR_REG:
000053 93ed      	ST   X+,R30
000054 958a      	DEC  R24
000055 f7e9      	BRNE __CLEAR_REG
         
         ;CLEAR SRAM
000056 e080      	LDI  R24,LOW(0x200)
000057 e092      	LDI  R25,HIGH(0x200)
000058 e6a0      	LDI  R26,0x60
          __CLEAR_SRAM:
000059 93ed      	ST   X+,R30
00005a 9701      	SBIW R24,1
00005b f7e9      	BRNE __CLEAR_SRAM
         
         ;GLOBAL VARIABLES INITIALIZATION
00005c e8ee      	LDI  R30,LOW(__GLOBAL_INI_TBL*2)
00005d e0f0      	LDI  R31,HIGH(__GLOBAL_INI_TBL*2)
          __GLOBAL_INI_NEXT:
00005e 95c8      	LPM
00005f 9631      	ADIW R30,1
000060 2c10      	MOV  R1,R0
000061 95c8      	LPM
000062 9631      	ADIW R30,1
000063 2f6e      	MOV  R22,R30
000064 2f7f      	MOV  R23,R31
000065 2df0      	MOV  R31,R0
000066 2de1      	MOV  R30,R1
000067 9730      	SBIW R30,0
000068 f0a1      	BREQ __GLOBAL_INI_END
000069 95c8      	LPM
00006a 9631      	ADIW R30,1
00006b 2da0      	MOV  R26,R0
00006c 95c8      	LPM
00006d 9631      	ADIW R30,1
00006e 2db0      	MOV  R27,R0
00006f 95c8      	LPM
000070 9631      	ADIW R30,1
000071 2d80      	MOV  R24,R0
000072 95c8      	LPM
000073 9631      	ADIW R30,1
000074 2d90      	MOV  R25,R0
          __GLOBAL_INI_LOOP:
000075 95c8      	LPM
000076 9631      	ADIW R30,1
000077 920d      	ST   X+,R0
000078 9701      	SBIW R24,1
000079 f7d9      	BRNE __GLOBAL_INI_LOOP
00007a 2fe6      	MOV  R30,R22
00007b 2ff7      	MOV  R31,R23
00007c cfe1      	RJMP __GLOBAL_INI_NEXT
          __GLOBAL_INI_END:
         
         ;STACK POINTER INITIALIZATION
00007d e5ef      	LDI  R30,LOW(0x25F)
00007e bfed      	OUT  SPL,R30
00007f e0e2      	LDI  R30,HIGH(0x25F)
000080 bfee      	OUT  SPH,R30
         
         ;DATA STACK POINTER INITIALIZATION
000081 edcf      	LDI  R28,LOW(0xDF)
000082 e0d0      	LDI  R29,HIGH(0xDF)
         
000083 c000      	RJMP _main
         
          	.ESEG
          	.ORG 0
          	.DB  0 ; FIRST EEPROM LOCATION NOT USED, SEE ATMEL ERRATA SHEETS
000000 00
         
          	.DSEG
          	.ORG 0xE0
         ;       1 /*********************************************
         ;       2 This program was produced by the
         ;       3 CodeWizardAVR V1.23.5 Evaluation
         ;       4 Automatic Program Generator
         ;       5 © Copyright 1998-2002 HP InfoTech s.r.l.
         ;       6 http://www.hpinfotech.ro
         ;       7 e-mail:office@hpinfotech.ro , hpinfotech@xnet.ro
         ;       8 
         ;       9 Project : 
         ;      10 Version : 
         ;      11 Date    : 7/25/2002
         ;      12 Author  : 
         ;      13 Company : 
         ;      14 Comments: 
         ;      15 
         ;      16 
         ;      17 Chip type           : AT90S8535
         ;      18 Clock frequency     : 4.000000 MHz
         ;      19 Memory model        : Small
         ;      20 Internal SRAM size  : 512
         ;      21 External SRAM size  : 0
         ;      22 Data Stack size     : 128
         ;      23 *********************************************/
         ;      24 
         ;      25 #include <90s8535.h>    
         ;      26 #include <stdio.h> 
         ;      27 #include <stdlib.h>
         ;      28               
         ;      29 
         ;      30 #define DAC3SEL PORTC.6    
         ;      31 #define DAC4SEL PORTD.0 
         ;      32 #define DAC2SEL PORTD.2 
         ;      33 #define DAC1SEL PORTD.4 
         ;      34 #define DACWRITE PORTD.6 
         ;      35 
         ;      36 char command[5];     
          _command:
0000e0      	.BYTE 0x5
         ;      37 int rep=0;
         ;      38 float invalue;
          _invalue:
0000e5      	.BYTE 0x4
         ;      39 typedef struct bitsforuse{
         ;      40 	unsigned int a:1;
         ;      41 	unsigned int b:1;
         ;      42 	unsigned int c:1;
         ;      43   	unsigned int d:1;
         ;      44 	unsigned int e:1;
         ;      45 	unsigned int f:1;
         ;      46 	unsigned int g:1;	
         ;      47 	unsigned int h:1;
         ;      48 	unsigned int i:1;
         ;      49 	unsigned int j:1;
         ;      50 	unsigned int k:1;
         ;      51 	unsigned int l:1;   
         ;      52 	
         ;      53 }io;
         ;      54 union bits{                 
         ;      55 		io iolines;
         ;      56 		unsigned int dummy;
         ;      57 	}ten;// declaring a structure for reading toggled bits
          _ten:
0000e9      	.BYTE 0x2
         ;      58 void main(void)
         ;      59 {
         
          	.CSEG
          _main:
         ;      60 
         ;      61 PORTA=0x00;
000084 27ee      	CLR  R30
000085 bbeb      	OUT  0x1B,R30
         ;      62 DDRA=0xff;
000086 efef      	LDI  R30,LOW(255)
000087 bbea      	OUT  0x1A,R30
         ;      63 PORTB=0x00;
000088 27ee      	CLR  R30
000089 bbe8      	OUT  0x18,R30
         ;      64 DDRB=0xff; 
00008a efef      	LDI  R30,LOW(255)
00008b bbe7      	OUT  0x17,R30
         ;      65 PORTC=0x00;
00008c 27ee      	CLR  R30
00008d bbe5      	OUT  0x15,R30
         ;      66 DDRC=0xff;
00008e efef      	LDI  R30,LOW(255)
00008f bbe4      	OUT  0x14,R30
         ;      67 PORTD=0x00;
000090 27ee      	CLR  R30
000091 bbe2      	OUT  0x12,R30
         ;      68 DDRD=0xff;
000092 efef      	LDI  R30,LOW(255)
000093 bbe1      	OUT  0x11,R30
         ;      69 GIMSK=0x00;
000094 27ee      	CLR  R30
000095 bfeb      	OUT  0x3B,R30
         ;      70 MCUCR=0x00;
000096 bfe5      	OUT  0x35,R30
         ;      71 TIMSK=0x00;
000097 bfe9      	OUT  0x39,R30
         ;      72 UCR=0x18;   
000098 e1e8      	LDI  R30,LOW(24)
000099 b9ea      	OUT  0xA,R30
         ;      73 UBRR=0x17;
00009a e1e7      	LDI  R30,LOW(23)
00009b b9e9      	OUT  0x9,R30
         ;      74 
         ;      75 while (1)
          _0xA:
         ;      76 {             
         ;      77        	printf("Please enter a value between 1 and 4096");
00009c   +  	__POINTW1FN _9,0
00009c e2e2      	LDI  R30,LOW(2*_9+0x0)
00009d e0f0      	LDI  R31,HIGH(2*_9+0x0)
          	.ENDM
00009e 93fa      	ST   -Y,R31
00009f 93ea      	ST   -Y,R30
0000a0 e080      	LDI  R24,0
0000a1 d1a9      	RCALL _printf
0000a2 9622      	ADIW R28,2
         ;      78 	gets(command, 1);	         
0000a3 d1c2      	RCALL SUBOPT_0x0
0000a4 e0e1      	LDI  R30,LOW(1)
0000a5 e0f0      	LDI  R31,HIGH(1)
0000a6 d1c4      	RCALL SUBOPT_0x1
         ;      79 	{  
         ;      80 	   gets(command, 5);   
0000a7 e0e5      	LDI  R30,LOW(5)
0000a8 e0f0      	LDI  R31,HIGH(5)
0000a9 d1c1      	RCALL SUBOPT_0x1
         ;      81 	   rep=atoi(command);    
0000aa d1db      	RCALL _atoi
0000ab   +  	__PUTW1R 3,4
0000ab 2e3e      	MOV  R0x3,R30
0000ac 2e4f      	MOV  R0x4,R31
          	.ENDM
         ;      82 	}        
         ;      83             //rep=(int)(invalue*4096/5.0);
         ;      84 		ten.dummy=rep;
0000ad   +  	__PUTWMRN _ten,0,3,4
0000ad 9230 00e9 	STS  _ten+0x0,R0x3
0000af 9240 00ea 	STS  _ten+0x0+1,R0x4
          	.ENDM
         ;      85 		printf("the value is %d %d %d %d %d %d %d %d %d %d %d %d\n",ten.iolines.a,ten.iolines.b,ten.iolines.c,
         ;      86 			ten.iolines.d,ten.iolines.e,ten.iolines.f,ten.iolines.g,ten.iolines.h,ten.iolines.i,ten.iolines.j,
         ;      87 			ten.iolines.k,ten.iolines.l);    
0000b1   +  	__POINTW1FN _9,40
0000b1 e4ea      	LDI  R30,LOW(2*_9+0x28)
0000b2 e0f0      	LDI  R31,HIGH(2*_9+0x28)
          	.ENDM
0000b3 93fa      	ST   -Y,R31
0000b4 93ea      	ST   -Y,R30
0000b5 91e0 00e9 	LDS  R30,_ten
0000b7 91f0 00ea 	LDS  R31,_ten+1
0000b9 d1b5      	RCALL SUBOPT_0x2
0000ba   +  	__GETW1MN _ten,2
0000ba 91e0 00eb 	LDS  R30,_ten+0x2
0000bc 91f0 00ec 	LDS  R31,_ten+0x2+1
          	.ENDM
0000be 95f6      	LSR  R31
0000bf 95e7      	ROR  R30
0000c0 d1ae      	RCALL SUBOPT_0x2
0000c1   +  	__GETW1MN _ten,2
0000c1 91e0 00eb 	LDS  R30,_ten+0x2
0000c3 91f0 00ec 	LDS  R31,_ten+0x2+1
          	.ENDM
0000c5 d254      	RCALL __LSRW2
0000c6 d1a8      	RCALL SUBOPT_0x2
0000c7   +  	__GETW1MN _ten,2
0000c7 91e0 00eb 	LDS  R30,_ten+0x2
0000c9 91f0 00ec 	LDS  R31,_ten+0x2+1
          	.ENDM
0000cb d24c      	RCALL __LSRW3
0000cc d1a2      	RCALL SUBOPT_0x2
0000cd   +  	__GETW1MN _ten,2
0000cd 91e0 00eb 	LDS  R30,_ten+0x2
0000cf 91f0 00ec 	LDS  R31,_ten+0x2+1
          	.ENDM
0000d1 d244      	RCALL __LSRW4
0000d2 d19c      	RCALL SUBOPT_0x2
0000d3   +  	__GETW2MN _ten,2
0000d3 91a0 00eb 	LDS  R26,_ten+0x2
0000d5 91b0 00ec 	LDS  R27,_ten+0x2+1
          	.ENDM
0000d7 e0e5      	LDI  R30,LOW(5)
0000d8 d19c      	RCALL SUBOPT_0x3
0000d9   +  	__GETW2MN _ten,2
0000d9 91a0 00eb 	LDS  R26,_ten+0x2
0000db 91b0 00ec 	LDS  R27,_ten+0x2+1
          	.ENDM
0000dd e0e6      	LDI  R30,LOW(6)
0000de d196      	RCALL SUBOPT_0x3
0000df   +  	__GETW2MN _ten,2
0000df 91a0 00eb 	LDS  R26,_ten+0x2
0000e1 91b0 00ec 	LDS  R27,_ten+0x2+1
          	.ENDM
0000e3 e0e7      	LDI  R30,LOW(7)
0000e4 d190      	RCALL SUBOPT_0x3
0000e5   +  	__GETW2MN _ten,2
0000e5 91a0 00eb 	LDS  R26,_ten+0x2
0000e7 91b0 00ec 	LDS  R27,_ten+0x2+1
          	.ENDM
0000e9 2fea      	MOV  R30,R26
0000ea 2ffb      	MOV  R31,R27
0000eb 2fef      	MOV  R30,R31
0000ec 27ff      	CLR  R31
0000ed d181      	RCALL SUBOPT_0x2
0000ee   +  	__GETW2MN _ten,2
0000ee 91a0 00eb 	LDS  R26,_ten+0x2
0000f0 91b0 00ec 	LDS  R27,_ten+0x2+1
          	.ENDM
0000f2 e0e9      	LDI  R30,LOW(9)
0000f3 d181      	RCALL SUBOPT_0x3
0000f4   +  	__GETW2MN _ten,2
0000f4 91a0 00eb 	LDS  R26,_ten+0x2
0000f6 91b0 00ec 	LDS  R27,_ten+0x2+1
          	.ENDM
0000f8 e0ea      	LDI  R30,LOW(10)
0000f9 d17b      	RCALL SUBOPT_0x3
0000fa   +  	__GETW2MN _ten,2
0000fa 91a0 00eb 	LDS  R26,_ten+0x2
0000fc 91b0 00ec 	LDS  R27,_ten+0x2+1
          	.ENDM
0000fe e0eb      	LDI  R30,LOW(11)
0000ff d175      	RCALL SUBOPT_0x3
000100 e380      	LDI  R24,48
000101 d149      	RCALL _printf
000102 96e2      	ADIW R28,50
         ;      88 		       	DAC4SEL=0;
000103 9890      	CBI  0x12,0
         ;      89 			DAC3SEL=0;
000104 98ae      	CBI  0x15,6
         ;      90 		 	DAC2SEL=0;     
000105 9892      	CBI  0x12,2
         ;      91 		   	DAC1SEL=0;
000106 9894      	CBI  0x12,4
         ;      92 		     	DACWRITE=0;
000107 9896      	CBI  0x12,6
         ;      93       };
000108 cf93      	RJMP _0xA
         ;      94 }
          _0xD:
000109 cfff      	RJMP _0xD
          _getchar:
00010a 9b5f           sbis usr,rxc
00010b cffe           rjmp _getchar
00010c b1ec           in   r30,udr
00010d 9508      	RET
          _putchar:
00010e 9b5d           sbis usr,udre
00010f cffe           rjmp _putchar
000110 81e8           ld   r30,y
000111 b9ec           out  udr,r30
000112 9621      	ADIW R28,1
000113 9508      	RET
         
          	.DSEG
          _pp_G2:
0000eb      	.BYTE 0x2
         
          	.CSEG
          __put_G2:
          	put:
000114 91e0 00eb 	LDS  R30,_pp_G2
000116 91f0 00ec 	LDS  R31,_pp_G2+1
000118 9730      	SBIW R30,0
000119 f069      	BREQ _0x44
00011a 91a0 00eb 	LDS  R26,_pp_G2
00011c 91b0 00ec 	LDS  R27,_pp_G2+1
00011e 9611      	ADIW R26,1
00011f 93a0 00eb 	STS  _pp_G2,R26
000121 93b0 00ec 	STS  _pp_G2+1,R27
000123 9711      	SBIW R26,1
000124 81e8      	LD   R30,Y
000125 93ec      	ST   X,R30
000126 c003      	RJMP _0x45
          _0x44:
000127 81e8      	LD   R30,Y
000128 93ea      	ST   -Y,R30
000129 dfe4      	RCALL _putchar
          _0x45:
00012a 9621      	ADIW R28,1
00012b 9508      	RET
          __print_G2:
00012c 9728      	SBIW R28,8
00012d d207      	RCALL __SAVELOCR6
00012e e000      	LDI  R16,0
          _0x47:
00012f 89e8      	LDD  R30,Y+16
000130 89f9      	LDD  R31,Y+16+1
000131 9631      	ADIW R30,1
000132 8be8      	STD  Y+16,R30
000133 8bf9      	STD  Y+16+1,R31
000134 9731      	SBIW R30,1
000135 95c8      	LPM
000136 2de0      	MOV  R30,R0
000137 2f3e      	MOV  R19,R30
000138 30e0      	CPI  R30,0
000139 f409      	BRNE PC+2
00013a c10d      	RJMP _0x49
00013b 2fe0      	MOV  R30,R16
00013c 30e0      	CPI  R30,0
00013d f431      	BRNE _0x4D
00013e 3235      	CPI  R19,37
00013f f411      	BRNE _0x4E
000140 e001      	LDI  R16,LOW(1)
000141 c001      	RJMP _0x4F
          _0x4E:
000142 d134      	RCALL SUBOPT_0x4
          _0x4F:
000143 c103      	RJMP _0x4C
          _0x4D:
000144 30e1      	CPI  R30,LOW(0x1)
000145 f4a9      	BRNE _0x50
000146 3235      	CPI  R19,37
000147 f419      	BRNE _0x51
000148 d12e      	RCALL SUBOPT_0x4
000149 e000      	LDI  R16,LOW(0)
00014a c0fc      	RJMP _0x4C
          _0x51:
00014b e002      	LDI  R16,LOW(2)
00014c e050      	LDI  R21,LOW(0)
00014d e010      	LDI  R17,LOW(0)
00014e 323d      	CPI  R19,45
00014f f411      	BRNE _0x52
000150 e011      	LDI  R17,LOW(1)
000151 c0f5      	RJMP _0x4C
          _0x52:
000152 323b      	CPI  R19,43
000153 f411      	BRNE _0x53
000154 e25b      	LDI  R21,LOW(43)
000155 c0f1      	RJMP _0x4C
          _0x53:
000156 3230      	CPI  R19,32
000157 f411      	BRNE _0x54
000158 e250      	LDI  R21,LOW(32)
000159 c0ed      	RJMP _0x4C
          _0x54:
00015a c002      	RJMP _0x55
          _0x50:
00015b 30e2      	CPI  R30,LOW(0x2)
00015c f439      	BRNE _0x56
          _0x55:
00015d e040      	LDI  R20,LOW(0)
00015e e003      	LDI  R16,LOW(3)
00015f 3330      	CPI  R19,48
000160 f411      	BRNE _0x57
000161 6810      	ORI  R17,LOW(128)
000162 c0e4      	RJMP _0x4C
          _0x57:
000163 c003      	RJMP _0x58
          _0x56:
000164 30e3      	CPI  R30,LOW(0x3)
000165 f009      	BREQ PC+2
000166 c0e0      	RJMP _0x4C
          _0x58:
000167 3330      	CPI  R19,48
000168 f010      	BRLO _0x5B
000169 333a      	CPI  R19,58
00016a f008      	BRLO _0x5C
          _0x5B:
00016b c009      	RJMP _0x5A
          _0x5C:
00016c 2f24      	MOV  R18,R20
00016d 0f44      	LSL  R20
00016e 0f44      	LSL  R20
00016f 0f42      	ADD  R20,R18
000170 0f44      	LSL  R20
000171 2fe3      	MOV  R30,R19
000172 53e0      	SUBI R30,LOW(48)
000173 0f4e      	ADD  R20,R30
000174 c0d2      	RJMP _0x4C
          _0x5A:
000175 2fe3      	MOV  R30,R19
000176 36e3      	CPI  R30,LOW(0x63)
000177 f421      	BRNE _0x60
000178 d100      	RCALL SUBOPT_0x5
000179 91ec      	LD   R30,X
00017a d105      	RCALL SUBOPT_0x6
00017b c0ca      	RJMP _0x61
          _0x60:
00017c 37e3      	CPI  R30,LOW(0x73)
00017d f449      	BRNE _0x63
00017e d0fa      	RCALL SUBOPT_0x5
00017f d1a3      	RCALL __GETD1P
000180 87ec      	STD  Y+12,R30
000181 87fd      	STD  Y+12+1,R31
000182 93fa      	ST   -Y,R31
000183 93ea      	ST   -Y,R30
000184 d168      	RCALL _strlen
000185 2f0e      	MOV  R16,R30
000186 c00b      	RJMP _0x64
          _0x63:
000187 37e0      	CPI  R30,LOW(0x70)
000188 f469      	BRNE _0x66
000189 d0ef      	RCALL SUBOPT_0x5
00018a d198      	RCALL __GETD1P
00018b 83ee      	STD  Y+6,R30
00018c 83ff      	STD  Y+6+1,R31
00018d 93fa      	ST   -Y,R31
00018e 93ea      	ST   -Y,R30
00018f d167      	RCALL _strlenf
000190 2f0e      	MOV  R16,R30
000191 6018      	ORI  R17,LOW(8)
          _0x64:
000192 6012      	ORI  R17,LOW(2)
000193 771f      	ANDI R17,LOW(127)
000194 e020      	LDI  R18,LOW(0)
000195 c030      	RJMP _0x67
          _0x66:
000196 36e4      	CPI  R30,LOW(0x64)
000197 f011      	BREQ _0x6A
000198 36e9      	CPI  R30,LOW(0x69)
000199 f411      	BRNE _0x6B
          _0x6A:
00019a 6014      	ORI  R17,LOW(4)
00019b c002      	RJMP _0x6C
          _0x6B:
00019c 37e5      	CPI  R30,LOW(0x75)
00019d f431      	BRNE _0x6D
          _0x6C:
00019e e7ec      	LDI  R30,LOW(_tbl10_G2*2)
00019f e0f0      	LDI  R31,HIGH(_tbl10_G2*2)
0001a0 83ee      	STD  Y+6,R30
0001a1 83ff      	STD  Y+6+1,R31
0001a2 e005      	LDI  R16,LOW(5)
0001a3 c00c      	RJMP _0x6E
          _0x6D:
0001a4 35e8      	CPI  R30,LOW(0x58)
0001a5 f411      	BRNE _0x70
0001a6 6018      	ORI  R17,LOW(8)
0001a7 c003      	RJMP _0x71
          _0x70:
0001a8 37e8      	CPI  R30,LOW(0x78)
0001a9 f009      	BREQ PC+2
0001aa c09b      	RJMP _0x9F
          _0x71:
0001ab e8e6      	LDI  R30,LOW(_tbl16_G2*2)
0001ac e0f0      	LDI  R31,HIGH(_tbl16_G2*2)
0001ad 83ee      	STD  Y+6,R30
0001ae 83ff      	STD  Y+6+1,R31
0001af e004      	LDI  R16,LOW(4)
          _0x6E:
0001b0 ff12      	SBRS R17,2
0001b1 c012      	RJMP _0x73
0001b2 d0c6      	RCALL SUBOPT_0x5
0001b3 d0ce      	RCALL SUBOPT_0x7
0001b4 85aa      	LDD  R26,Y+10
0001b5 85bb      	LDD  R27,Y+10+1
0001b6 9710      	SBIW R26,0
0001b7 f434      	BRGE _0x74
0001b8 85ea      	LDD  R30,Y+10
0001b9 85fb      	LDD  R31,Y+10+1
0001ba d14d      	RCALL __ANEGW1
0001bb 87ea      	STD  Y+10,R30
0001bc 87fb      	STD  Y+10+1,R31
0001bd e25d      	LDI  R21,LOW(45)
          _0x74:
0001be 3050      	CPI  R21,0
0001bf f011      	BREQ _0x75
0001c0 5f0f      	SUBI R16,-LOW(1)
0001c1 c001      	RJMP _0x76
          _0x75:
0001c2 7f1b      	ANDI R17,LOW(251)
          _0x76:
0001c3 c002      	RJMP _0x77
          _0x73:
0001c4 d0b4      	RCALL SUBOPT_0x5
0001c5 d0bc      	RCALL SUBOPT_0x7
          _0x77:
          _0x67:
0001c6 fd10      	SBRC R17,0
0001c7 c010      	RJMP _0x78
          _0x79:
0001c8 1704      	CP   R16,R20
0001c9 f470      	BRSH _0x7B
0001ca ff17      	SBRS R17,7
0001cb c008      	RJMP _0x7C
0001cc ff12      	SBRS R17,2
0001cd c004      	RJMP _0x7D
0001ce 7f1b      	ANDI R17,LOW(251)
0001cf 2f35      	MOV  R19,R21
0001d0 5001      	SUBI R16,LOW(1)
0001d1 c001      	RJMP _0x7E
          _0x7D:
0001d2 e330      	LDI  R19,LOW(48)
          _0x7E:
0001d3 c001      	RJMP _0x7F
          _0x7C:
0001d4 e230      	LDI  R19,LOW(32)
          _0x7F:
0001d5 d0a1      	RCALL SUBOPT_0x4
0001d6 5041      	SUBI R20,LOW(1)
0001d7 cff0      	RJMP _0x79
          _0x7B:
          _0x78:
0001d8 2f20      	MOV  R18,R16
0001d9 ff11      	SBRS R17,1
0001da c01a      	RJMP _0x80
          _0x81:
0001db 3020      	CPI  R18,0
0001dc f0b9      	BREQ _0x83
0001dd ff13      	SBRS R17,3
0001de c009      	RJMP _0x84
0001df 81ee      	LDD  R30,Y+6
0001e0 81ff      	LDD  R31,Y+6+1
0001e1 9631      	ADIW R30,1
0001e2 83ee      	STD  Y+6,R30
0001e3 83ff      	STD  Y+6+1,R31
0001e4 9731      	SBIW R30,1
0001e5 95c8      	LPM
0001e6 2de0      	MOV  R30,R0
0001e7 c005      	RJMP _0xA1
          _0x84:
0001e8 85ac      	LDD  R26,Y+12
0001e9 85bd      	LDD  R27,Y+12+1
0001ea 91ed      	LD   R30,X+
0001eb 87ac      	STD  Y+12,R26
0001ec 87bd      	STD  Y+12+1,R27
          _0xA1:
0001ed 93ea      	ST   -Y,R30
0001ee df25      	RCALL __put_G2
0001ef 3040      	CPI  R20,0
0001f0 f009      	BREQ _0x86
0001f1 5041      	SUBI R20,LOW(1)
          _0x86:
0001f2 5021      	SUBI R18,LOW(1)
0001f3 cfe7      	RJMP _0x81
          _0x83:
0001f4 c049      	RJMP _0x87
          _0x80:
          _0x89:
0001f5 e330      	LDI  R19,LOW(48)
0001f6 81ee      	LDD  R30,Y+6
0001f7 81ff      	LDD  R31,Y+6+1
0001f8 9632      	ADIW R30,2
0001f9 83ee      	STD  Y+6,R30
0001fa 83ff      	STD  Y+6+1,R31
0001fb 9732      	SBIW R30,2
0001fc d12c      	RCALL __GETW1PF
0001fd 87e8      	STD  Y+8,R30
0001fe 87f9      	STD  Y+8+1,R31
0001ff 85aa                                            ldd  r26,y+10  ;R26,R27=n
000200 85bb                                            ldd  r27,y+11
                                            calc_digit:
000201 17ae                                            cp   r26,r30
000202 07bf                                            cpc  r27,r31
000203 f020                                            brlo calc_digit_done
000204 5f3f      	SUBI R19,-LOW(1)
000205 1bae      	                                  sub  r26,r30
000206 0bbf      	                                  sbc  r27,r31
000207 f7c9      	                                  brne calc_digit
                                            calc_digit_done:
000208 87aa                                            std  Y+10,r26 ;n=R26,R27
000209 87bb                                            std  y+11,r27
00020a e3e9      	LDI  R30,LOW(57)
00020b 17e3      	CP   R30,R19
00020c f428      	BRSH _0x8B
00020d ff13      	SBRS R17,3
00020e c002      	RJMP _0x8C
00020f 5f39      	SUBI R19,-LOW(7)
000210 c001      	RJMP _0x8D
          _0x8C:
000211 5d39      	SUBI R19,-LOW(39)
          _0x8D:
          _0x8B:
000212 fd14      	SBRC R17,4
000213 c01d      	RJMP _0x8F
000214 e3e0      	LDI  R30,LOW(48)
000215 17e3      	CP   R30,R19
000216 f030      	BRLO _0x91
000217 85a8      	LDD  R26,Y+8
000218 85b9      	LDD  R27,Y+8+1
000219 30a1      	CPI  R26,LOW(0x1)
00021a e0e0      	LDI  R30,HIGH(0x1)
00021b 07be      	CPC  R27,R30
00021c f411      	BRNE _0x90
          _0x91:
00021d 6110      	ORI  R17,LOW(16)
00021e c00a      	RJMP _0x93
          _0x90:
00021f 1742      	CP   R20,R18
000220 f010      	BRLO _0x95
000221 ff10      	SBRS R17,0
000222 c001      	RJMP _0x96
          _0x95:
000223 c011      	RJMP _0x94
          _0x96:
000224 e230      	LDI  R19,LOW(32)
000225 ff17      	SBRS R17,7
000226 c00a      	RJMP _0x97
000227 e330      	LDI  R19,LOW(48)
000228 6110      	ORI  R17,LOW(16)
          _0x93:
000229 ff12      	SBRS R17,2
00022a c006      	RJMP _0x98
00022b 7f1b      	ANDI R17,LOW(251)
00022c 935a      	ST   -Y,R21
00022d dee6      	RCALL __put_G2
00022e 3040      	CPI  R20,0
00022f f009      	BREQ _0x99
000230 5041      	SUBI R20,LOW(1)
          _0x99:
          _0x98:
          _0x97:
          _0x8F:
000231 d045      	RCALL SUBOPT_0x4
000232 3040      	CPI  R20,0
000233 f009      	BREQ _0x9A
000234 5041      	SUBI R20,LOW(1)
          _0x9A:
          _0x94:
000235 5021      	SUBI R18,LOW(1)
000236 85a8      	LDD  R26,Y+8
000237 85b9      	LDD  R27,Y+8+1
000238 e0e1      	LDI  R30,LOW(1)
000239 e0f0      	LDI  R31,HIGH(1)
00023a 17ea      	CP   R30,R26
00023b 07fb      	CPC  R31,R27
00023c f408      	BRSH _0x8A
00023d cfb7      	RJMP _0x89
          _0x8A:
          _0x87:
00023e ff10      	SBRS R17,0
00023f c006      	RJMP _0x9B
          _0x9C:
000240 3040      	CPI  R20,0
000241 f021      	BREQ _0x9E
000242 5041      	SUBI R20,LOW(1)
000243 e2e0      	LDI  R30,LOW(32)
000244 d03b      	RCALL SUBOPT_0x6
000245 cffa      	RJMP _0x9C
          _0x9E:
          _0x9B:
          _0x9F:
          _0x61:
000246 e000      	LDI  R16,LOW(0)
          _0x4C:
000247 cee7      	RJMP _0x47
          _0x49:
000248 d0f3      	RCALL __LOADLOCR6
000249 9662      	ADIW R28,18
00024a 9508      	RET
          _printf:
00024b 2ef8      	MOV  R15,R24
00024c 9722      	SBIW R28,2
00024d 2fac      	MOV  R26,R28
00024e 2fbd      	MOV  R27,R29
00024f 9712      	SBIW R26,2
000250 d0b3      	RCALL __ADDW2R15
000251 83a8      	ST   Y,R26
000252 83b9      	STD  Y+1,R27
000253 27ee      	CLR  R30
000254 93e0 00eb 	STS  _pp_G2,R30
000256 93e0 00ec 	STS  _pp_G2+1,R30
000258 2fac      	MOV  R26,R28
000259 2fbd      	MOV  R27,R29
00025a 9612      	ADIW R26,2
00025b d0a8      	RCALL __ADDW2R15
00025c d0c2      	RCALL __GETW1P
00025d 93fa      	ST   -Y,R31
00025e 93ea      	ST   -Y,R30
00025f 81ea      	LDD  R30,Y+2
000260 81fb      	LDD  R31,Y+2+1
000261 93fa      	ST   -Y,R31
000262 93ea      	ST   -Y,R30
000263 dec8      	RCALL __print_G2
000264 9622      	ADIW R28,2
000265 9508      	RET
         
         ;OPTIMIZER ADDED SUBROUTINE, CALLED 3 TIMES
          SUBOPT_0x0:
000266 eee0      	LDI  R30,LOW(_command)
000267 e0f0      	LDI  R31,HIGH(_command)
000268 93fa      	ST   -Y,R31
000269 93ea      	ST   -Y,R30
00026a 9508      	RET
         
         ;OPTIMIZER ADDED SUBROUTINE, CALLED 2 TIMES
          SUBOPT_0x1:
00026b 93fa      	ST   -Y,R31
00026c 93ea      	ST   -Y,R30
00026d d049      	RCALL _gets
00026e cff7      	RJMP SUBOPT_0x0
         
         ;OPTIMIZER ADDED SUBROUTINE, CALLED 12 TIMES
          SUBOPT_0x2:
00026f 70e1      	ANDI R30,LOW(0x1)
000270 70f0      	ANDI R31,HIGH(0x1)
000271 2766      	CLR  R22
000272 2777      	CLR  R23
000273 d0bc      	RCALL __PUTPARD1
000274 9508      	RET
         
         ;OPTIMIZER ADDED SUBROUTINE, CALLED 6 TIMES
          SUBOPT_0x3:
000275 d096      	RCALL __LSRW12
000276 cff8      	RJMP SUBOPT_0x2
         
         ;OPTIMIZER ADDED SUBROUTINE, CALLED 4 TIMES
          SUBOPT_0x4:
000277 933a      	ST   -Y,R19
000278 ce9b      	RJMP __put_G2
         
         ;OPTIMIZER ADDED SUBROUTINE, CALLED 5 TIMES
          SUBOPT_0x5:
000279 85ae      	LDD  R26,Y+14
00027a 85bf      	LDD  R27,Y+14+1
00027b 9714      	SBIW R26,4
00027c 87ae      	STD  Y+14,R26
00027d 87bf      	STD  Y+14+1,R27
00027e 9614      	ADIW R26,4
00027f 9508      	RET
         
         ;OPTIMIZER ADDED SUBROUTINE, CALLED 2 TIMES
          SUBOPT_0x6:
000280 93ea      	ST   -Y,R30
000281 ce92      	RJMP __put_G2
         
         ;OPTIMIZER ADDED SUBROUTINE, CALLED 2 TIMES
          SUBOPT_0x7:
000282 d09c      	RCALL __GETW1P
000283 87ea      	STD  Y+10,R30
000284 87fb      	STD  Y+10+1,R31
000285 9508      	RET
         
          _atoi:
000286 81b9      	ldd  r27,y+1
000287 81a8      	ld   r26,y
          __atoi0:
000288 91ec      	ld   r30,x
000289 93ea      	st   -y,r30
00028a d058      	rcall _isspace
00028b 23ee      	tst  r30
00028c f011      	breq __atoi1
00028d 9611      	adiw r26,1
00028e cff9      	rjmp __atoi0
          __atoi1:
00028f 94e8      	clt
000290 91ec      	ld   r30,x
000291 32ed      	cpi  r30,'-'
000292 f411      	brne __atoi2
000293 9468      	set
000294 c002      	rjmp __atoi3
          __atoi2:
000295 32eb      	cpi  r30,'+'
000296 f409      	brne __atoi4
          __atoi3:
000297 9611      	adiw r26,1
          __atoi4:
000298 2766      	clr  r22
000299 2777      	clr  r23
          __atoi5:
00029a 91ec      	ld   r30,x
00029b 93ea      	st   -y,r30
00029c d03e      	rcall _isdigit
00029d 23ee      	tst  r30
00029e f081      	breq __atoi6
00029f 2fe6      	mov  r30,r22
0002a0 2ff7      	mov  r31,r23
0002a1 0f66      	lsl  r22
0002a2 1f77      	rol  r23
0002a3 0f66      	lsl  r22
0002a4 1f77      	rol  r23
0002a5 0f6e      	add  r22,r30
0002a6 1f7f      	adc  r23,r31
0002a7 0f66      	lsl  r22
0002a8 1f77      	rol  r23
0002a9 91ed      	ld   r30,x+
0002aa 27ff      	clr  r31
0002ab 53e0      	subi r30,'0'
0002ac 0f6e      	add  r22,r30
0002ad 1f7f      	adc  r23,r31
0002ae cfeb      	rjmp __atoi5
          __atoi6:
0002af 2fe6      	mov  r30,r22
0002b0 2ff7      	mov  r31,r23
0002b1 f41e      	brtc __atoi7
0002b2 95e0      	com  r30
0002b3 95f0      	com  r31
0002b4 9631      	adiw r30,1
          __atoi7:
0002b5 9622      	adiw r28,2
0002b6 9508      	ret
         
          _gets:
0002b7 81bb      	ldd  r27,y+3
0002b8 81aa      	ldd  r26,y+2
0002b9 8199      	ldd  r25,y+1
0002ba 8188      	ld   r24,y
0002bb 9600      	adiw r24,0
0002bc f0e1      	breq __gets2
          __gets0:
0002bd 938f      	push r24
0002be 939f      	push r25
0002bf 93af      	push r26
0002c0 93bf      	push r27
0002c1 de48      	rcall _getchar
0002c2 91bf      	pop  r27
0002c3 91af      	pop  r26
0002c4 919f      	pop  r25
0002c5 918f      	pop  r24
0002c6 30e8      	cpi  r30,8
0002c7 f441      	brne __gets3
0002c8 81e8      	ld   r30,y
0002c9 178e      	cp   r24,r30
0002ca 81e9      	ldd  r30,y+1
0002cb 079e      	cpc  r25,r30
0002cc f784      	brge __gets0
0002cd 9601      	adiw r24,1
0002ce 9711      	sbiw r26,1
0002cf cfed      	rjmp __gets0
          __gets3:
0002d0 30ea      	cpi  r30,10
0002d1 f019      	breq __gets1
0002d2 93ed      	st   x+,r30
0002d3 9701      	sbiw r24,1
0002d4 f741      	brne __gets0
          __gets1:
0002d5 27ee      	clr  r30
0002d6 93ec      	st   x,r30
0002d7 81ea      	ldd  r30,y+2
0002d8 81fb      	ldd  r31,y+3
          __gets2:
0002d9 9624      	adiw r28,4
0002da 9508      	ret
         
          _isdigit:
0002db e0e1      	ldi  r30,1
0002dc 91f9      	ld   r31,y+
0002dd 33f0      	cpi  r31,'0'
0002de f010      	brlo __isdigit0
0002df 33fa      	cpi  r31,'9'+1
0002e0 f008      	brlo __isdigit1
          __isdigit0:
0002e1 27ee      	clr  r30
          __isdigit1:
0002e2 9508      	ret
         
          _isspace:
0002e3 e0e1      	ldi  r30,1
0002e4 91f9      	ld   r31,y+
0002e5 32f0      	cpi  r31,' '
0002e6 f029      	breq __isspace1
0002e7 30f9      	cpi  r31,9
0002e8 f019      	breq __isspace1
0002e9 30fd      	cpi  r31,13
0002ea f009      	breq __isspace1
0002eb 27ee      	clr  r30
          __isspace1:
0002ec 9508      	ret
         
          _strlen:
0002ed 91a9      	ld   r26,y+
0002ee 91b9      	ld   r27,y+
0002ef 27ee      	clr  r30
0002f0 27ff      	clr  r31
          __strlen0:
0002f1 916d      	ld   r22,x+
0002f2 2366      	tst  r22
0002f3 f011      	breq __strlen1
0002f4 9631      	adiw r30,1
0002f5 cffb      	rjmp __strlen0
          __strlen1:
0002f6 9508      	ret
         
          _strlenf:
0002f7 27aa      	clr  r26
0002f8 27bb      	clr  r27
0002f9 91e9      	ld   r30,y+
0002fa 91f9      	ld   r31,y+
          __strlenf0:
0002fb 95c8      	lpm 
0002fc 2000      	tst  r0
0002fd f019      	breq __strlenf1
0002fe 9611      	adiw r26,1
0002ff 9631      	adiw r30,1
000300 cffa      	rjmp __strlenf0
          __strlenf1:
000301 2fea      	mov  r30,r26
000302 2ffb      	mov  r31,r27
000303 9508      	ret
         
          __ADDW2R15:
000304 2400      	CLR  R0
000305 0daf      	ADD  R26,R15
000306 1db0      	ADC  R27,R0
000307 9508      	RET
         
          __ANEGW1:
000308 95e0      	COM  R30
000309 95f0      	COM  R31
00030a 9631      	ADIW R30,1
00030b 9508      	RET
         
          __LSRW12:
00030c 23ee      	TST  R30
00030d 2e0e      	MOV  R0,R30
00030e 2fea      	MOV  R30,R26
00030f 2ffb      	MOV  R31,R27
000310 f021      	BREQ __LSRW12R
          __LSRW12L:
000311 95f6      	LSR  R31
000312 95e7      	ROR  R30
000313 940a      	DEC  R0
000314 f7e1      	BRNE __LSRW12L
          __LSRW12R:
000315 9508      	RET
         
          __LSRW4:
000316 95f6      	LSR  R31
000317 95e7      	ROR  R30
          __LSRW3:
000318 95f6      	LSR  R31
000319 95e7      	ROR  R30
          __LSRW2:
00031a 95f6      	LSR  R31
00031b 95e7      	ROR  R30
00031c 95f6      	LSR  R31
00031d 95e7      	ROR  R30
00031e 9508      	RET
         
          __GETW1P:
00031f 91ed      	LD   R30,X+
000320 91fc      	LD   R31,X
000321 9711      	SBIW R26,1
000322 9508      	RET
         
          __GETD1P:
000323 91ed      	LD   R30,X+
000324 91fd      	LD   R31,X+
000325 916d      	LD   R22,X+
000326 917c      	LD   R23,X
000327 9713      	SBIW R26,3
000328 9508      	RET
         
          __GETW1PF:
000329 95c8      	LPM
00032a 9631      	ADIW R30,1
00032b 2c10      	MOV  R1,R0
00032c 95c8      	LPM 
00032d 2df0      	MOV  R31,R0
00032e 2de1      	MOV  R30,R1
00032f 9508      	RET
         
          __PUTPARD1:
000330 937a      	ST   -Y,R23
000331 936a      	ST   -Y,R22
000332 93fa      	ST   -Y,R31
000333 93ea      	ST   -Y,R30
000334 9508      	RET
         
          __SAVELOCR6:
000335 935a      	ST   -Y,R21
          __SAVELOCR5:
000336 934a      	ST   -Y,R20
          __SAVELOCR4:
000337 933a      	ST   -Y,R19
          __SAVELOCR3:
000338 932a      	ST   -Y,R18
          __SAVELOCR2:
000339 931a      	ST   -Y,R17
00033a 930a      	ST   -Y,R16
00033b 9508      	RET
         
          __LOADLOCR6:
00033c 815d      	LDD  R21,Y+5
          __LOADLOCR5:
00033d 814c      	LDD  R20,Y+4
          __LOADLOCR4:
00033e 813b      	LDD  R19,Y+3
          __LOADLOCR3:
00033f 812a      	LDD  R18,Y+2
          __LOADLOCR2:
000340 8119      	LDD  R17,Y+1
000341 8108      	LD   R16,Y
000342 9508      	RET
         

Assembly complete with no errors.
